; Function Attrs: nofree norecurse nosync nounwind memory(read, argmem: readwrite, inaccessiblemem: none) uwtable
define dso_local void @manifest_files_start_iterate(ptr noundef readonly captures(none) %0, ptr noundef writeonly captures(none) %1) local_unnamed_addr #12 {
  %3 = load i64, ptr %0, align 8
  %.not18 = icmp eq i64 %3, 0
  br i1 %.not18, label %._crit_edge, label %.lr.ph

.lr.ph:                                           ; preds = %2
  %4 = getelementptr inbounds nuw i8, ptr %0, i64 24
  %5 = load ptr, ptr %4, align 8
  br label %6

6:                                                ; preds = %.lr.ph, %10
  %7 = phi i64 [ 0, %.lr.ph ], [ %12, %10 ]
  %.01315 = phi i32 [ 0, %.lr.ph ], [ %11, %10 ]
  %8 = getelementptr inbounds nuw %struct.manifest_file, ptr %5, i64 %7
  %9 = load i32, ptr %8, align 8
  %.not = icmp eq i32 %9, 1
  br i1 %.not, label %10, label %._crit_edge

10:                                               ; preds = %6
  %11 = add i32 %.01315, 1
  %12 = zext i32 %11 to i64
  %13 = icmp ugt i64 %3, %12
  br i1 %13, label %6, label %._crit_edge, !llvm.loop !12

._crit_edge:                                      ; preds = %6, %10, %2
  %.1 = phi i32 [ -1, %2 ], [ -1, %10 ], [ %.01315, %6 ]
  store i32 %.1, ptr %1, align 4
  %14 = getelementptr inbounds nuw i8, ptr %1, i64 4
  store i32 %.1, ptr %14, align 4
  %15 = getelementptr inbounds nuw i8, ptr %1, i64 8
  store i8 0, ptr %15, align 4
  ret void
}